target datalayout = "e-m:e-p270:32:32-p271:32:32-p272:64:64-i64:64-i128:128-f80:128-n8:16:32:64-S128"
target triple = "x86_64-pc-linux-gnu"

%"class.Ipopt::Matrix" = type <{ %"class.Ipopt::TaggedObject", %"class.Ipopt::SmartPtr", i32, i8, [3 x i8] }>
%"class.Ipopt::TaggedObject" = type { %"class.Ipopt::ReferencedObject.base", %"class.Ipopt::Subject", i32, i32 }
%"class.Ipopt::ReferencedObject.base" = type <{ ptr, i32 }>
%"class.Ipopt::Subject" = type { ptr, %"class.std::vector" }
%"class.std::vector" = type { %"struct.std::_Vector_base" }
%"struct.std::_Vector_base" = type { %"struct.std::_Vector_base<Ipopt::Observer *, std::allocator<Ipopt::Observer *>>::_Vector_impl" }
%"struct.std::_Vector_base<Ipopt::Observer *, std::allocator<Ipopt::Observer *>>::_Vector_impl" = type { %"struct.std::_Vector_base<Ipopt::Observer *, std::allocator<Ipopt::Observer *>>::_Vector_impl_data" }
%"struct.std::_Vector_base<Ipopt::Observer *, std::allocator<Ipopt::Observer *>>::_Vector_impl_data" = type { ptr, ptr, ptr }
%"class.Ipopt::SmartPtr" = type { ptr }
%"class.Ipopt::DenseGenMatrix" = type { %"class.Ipopt::Matrix.base", ptr, ptr, i8, i32, ptr }
%"class.Ipopt::Matrix.base" = type <{ %"class.Ipopt::TaggedObject", %"class.Ipopt::SmartPtr", i32, i8 }>
%"class.Ipopt::MatrixSpace" = type { %"class.Ipopt::ReferencedObject.base", i32, i32, [4 x i8] }
%"class.Ipopt::ReferencedObject" = type <{ ptr, i32, [4 x i8] }>

@_ZTVN5Ipopt6MatrixE = external unnamed_addr constant { [14 x ptr], [4 x ptr] }, align 8
@_ZTVN5Ipopt7SubjectE = linkonce_odr unnamed_addr constant { [4 x ptr] } { [4 x ptr] [ptr null, ptr @_ZTIN5Ipopt7SubjectE, ptr @_ZN5Ipopt7SubjectD2Ev, ptr @_ZN5Ipopt7SubjectD0Ev] }, comdat, align 8
@_ZTVN5Ipopt16ReferencedObjectE = linkonce_odr unnamed_addr constant { [4 x ptr] } { [4 x ptr] [ptr null, ptr @_ZTIN5Ipopt16ReferencedObjectE, ptr @_ZN5Ipopt16ReferencedObjectD2Ev, ptr @_ZN5Ipopt16ReferencedObjectD0Ev] }, comdat, align 8

; Function Attrs: mustprogress nounwind uwtable
define linkonce_odr void @_ZNSt15__new_allocatorIPN5Ipopt8ObserverEEC2Ev(ptr noundef nonnull align 1 dereferenceable(1) %0) unnamed_addr #0 comdat align 2 {
  %2 = alloca ptr, align 8
  store ptr %0, ptr %2, align 8, !tbaa !165
  ret void
}

; Function Attrs: mustprogress nounwind uwtable
define linkonce_odr void @_ZNSt12_Vector_baseIPN5Ipopt8ObserverESaIS2_EE17_Vector_impl_dataC2Ev(ptr noundef nonnull align 8 dereferenceable(24) %0) unnamed_addr #0 comdat align 2 {
  %2 = alloca ptr, align 8
  store ptr %0, ptr %2, align 8, !tbaa !171
  %3 = load ptr, ptr %2, align 8
  %4 = getelementptr inbounds nuw %"struct.std::_Vector_base<Ipopt::Observer *, std::allocator<Ipopt::Observer *>>::_Vector_impl_data", ptr %3, i32 0, i32 0
  store ptr null, ptr %4, align 8, !tbaa !129
  %5 = getelementptr inbounds nuw %"struct.std::_Vector_base<Ipopt::Observer *, std::allocator<Ipopt::Observer *>>::_Vector_impl_data", ptr %3, i32 0, i32 1
  store ptr null, ptr %5, align 8, !tbaa !130
  %6 = getelementptr inbounds nuw %"struct.std::_Vector_base<Ipopt::Observer *, std::allocator<Ipopt::Observer *>>::_Vector_impl_data", ptr %3, i32 0, i32 2
  store ptr null, ptr %6, align 8, !tbaa !164
  ret void
}

; Function Attrs: mustprogress nounwind uwtable
define linkonce_odr void @_ZNSaIPN5Ipopt8ObserverEEC2Ev(ptr noundef nonnull align 1 dereferenceable(1) %0) unnamed_addr #0 comdat align 2 {
  %2 = alloca ptr, align 8
  store ptr %0, ptr %2, align 8, !tbaa !160
  %3 = load ptr, ptr %2, align 8
  call void @_ZNSt15__new_allocatorIPN5Ipopt8ObserverEEC2Ev(ptr noundef nonnull align 1 dereferenceable(1) %3) #16
  ret void
}

; Function Attrs: mustprogress nounwind uwtable
define linkonce_odr void @_ZNSt12_Vector_baseIPN5Ipopt8ObserverESaIS2_EE12_Vector_implC2Ev(ptr noundef nonnull align 8 dereferenceable(24) %0) unnamed_addr #0 comdat align 2 {
  %2 = alloca ptr, align 8
  store ptr %0, ptr %2, align 8, !tbaa !169
  %3 = load ptr, ptr %2, align 8
  call void @_ZNSaIPN5Ipopt8ObserverEEC2Ev(ptr noundef nonnull align 1 dereferenceable(1) %3) #16
  call void @_ZNSt12_Vector_baseIPN5Ipopt8ObserverESaIS2_EE17_Vector_impl_dataC2Ev(ptr noundef nonnull align 8 dereferenceable(24) %3) #16
  ret void
}

; Function Attrs: inlinehint mustprogress nounwind uwtable
define linkonce_odr noundef i32 @_ZNK5Ipopt16ReferencedObject14ReferenceCountEv(ptr noundef nonnull align 8 dereferenceable(12) %0) #8 comdat align 2 {
  %2 = alloca ptr, align 8
  store ptr %0, ptr %2, align 8, !tbaa !105
  %3 = load ptr, ptr %2, align 8
  %4 = getelementptr inbounds nuw %"class.Ipopt::ReferencedObject", ptr %3, i32 0, i32 1
  %5 = load i32, ptr %4, align 8, !tbaa !112
  ret i32 %5
}

; Function Attrs: inlinehint mustprogress nounwind uwtable
define linkonce_odr void @_ZNK5Ipopt16ReferencedObject10ReleaseRefEPKNS_10ReferencerE(ptr noundef nonnull align 8 dereferenceable(12) %0, ptr noundef %1) #8 comdat align 2 {
  %3 = alloca ptr, align 8
  %4 = alloca ptr, align 8
  store ptr %0, ptr %3, align 8, !tbaa !105
  store ptr %1, ptr %4, align 8, !tbaa !110
  %5 = load ptr, ptr %3, align 8
  %6 = getelementptr inbounds nuw %"class.Ipopt::ReferencedObject", ptr %5, i32 0, i32 1
  %7 = load i32, ptr %6, align 8, !tbaa !112
  %8 = add nsw i32 %7, -1
  store i32 %8, ptr %6, align 8, !tbaa !112
  ret void
}

; Function Attrs: mustprogress nounwind uwtable
define linkonce_odr void @_ZNSt12_Vector_baseIPN5Ipopt8ObserverESaIS2_EEC2Ev(ptr noundef nonnull align 8 dereferenceable(24) %0) unnamed_addr #0 comdat align 2 {
  %2 = alloca ptr, align 8
  store ptr %0, ptr %2, align 8, !tbaa !162
  %3 = load ptr, ptr %2, align 8
  %4 = getelementptr inbounds nuw %"struct.std::_Vector_base", ptr %3, i32 0, i32 0
  call void @_ZNSt12_Vector_baseIPN5Ipopt8ObserverESaIS2_EE12_Vector_implC2Ev(ptr noundef nonnull align 8 dereferenceable(24) %4) #16
  ret void
}

; Function Attrs: mustprogress uwtable
define linkonce_odr void @_ZN5Ipopt8SmartPtrIKNS_11MatrixSpaceEE15ReleasePointer_Ev(ptr noundef nonnull align 8 dereferenceable(8) %0) #2 comdat align 2 {
  %2 = alloca ptr, align 8
  store ptr %0, ptr %2, align 8, !tbaa !107
  %3 = load ptr, ptr %2, align 8
  %4 = getelementptr inbounds nuw %"class.Ipopt::SmartPtr", ptr %3, i32 0, i32 0
  %5 = load ptr, ptr %4, align 8, !tbaa !109
  %6 = icmp ne ptr %5, null
  br i1 %6, label %7, label %25

7:                                                ; preds = %1
  %8 = getelementptr inbounds nuw %"class.Ipopt::SmartPtr", ptr %3, i32 0, i32 0
  %9 = load ptr, ptr %8, align 8, !tbaa !109
  call void @_ZNK5Ipopt16ReferencedObject10ReleaseRefEPKNS_10ReferencerE(ptr noundef nonnull align 8 dereferenceable(12) %9, ptr noundef %3)
  %10 = getelementptr inbounds nuw %"class.Ipopt::SmartPtr", ptr %3, i32 0, i32 0
  %11 = load ptr, ptr %10, align 8, !tbaa !109
  %12 = call noundef i32 @_ZNK5Ipopt16ReferencedObject14ReferenceCountEv(ptr noundef nonnull align 8 dereferenceable(12) %11)
  %13 = icmp eq i32 %12, 0
  br i1 %13, label %14, label %24

14:                                               ; preds = %7
  %15 = getelementptr inbounds nuw %"class.Ipopt::SmartPtr", ptr %3, i32 0, i32 0
  %16 = load ptr, ptr %15, align 8, !tbaa !109
  %17 = icmp eq ptr %16, null
  br i1 %17, label %22, label %18

18:                                               ; preds = %14
  %19 = load ptr, ptr %16, align 8, !tbaa !8
  %20 = getelementptr inbounds ptr, ptr %19, i64 1
  %21 = load ptr, ptr %20, align 8
  call void %21(ptr noundef nonnull align 8 dereferenceable(20) %16) #16
  br label %22

22:                                               ; preds = %18, %14
  %23 = getelementptr inbounds nuw %"class.Ipopt::SmartPtr", ptr %3, i32 0, i32 0
  store ptr null, ptr %23, align 8, !tbaa !109
  br label %24

24:                                               ; preds = %22, %7
  br label %25

25:                                               ; preds = %24, %1
  ret void
}

; Function Attrs: inlinehint mustprogress nounwind uwtable
define linkonce_odr void @_ZNK5Ipopt16ReferencedObject6AddRefEPKNS_10ReferencerE(ptr noundef nonnull align 8 dereferenceable(12) %0, ptr noundef %1) #8 comdat align 2 {
  %3 = alloca ptr, align 8
  %4 = alloca ptr, align 8
  store ptr %0, ptr %3, align 8, !tbaa !105
  store ptr %1, ptr %4, align 8, !tbaa !110
  %5 = load ptr, ptr %3, align 8
  %6 = getelementptr inbounds nuw %"class.Ipopt::ReferencedObject", ptr %5, i32 0, i32 1
  %7 = load i32, ptr %6, align 8, !tbaa !112
  %8 = add nsw i32 %7, 1
  store i32 %8, ptr %6, align 8, !tbaa !112
  ret void
}

; Function Attrs: mustprogress nounwind uwtable
define linkonce_odr void @_ZNSt6vectorIPN5Ipopt8ObserverESaIS2_EEC2Ev(ptr noundef nonnull align 8 dereferenceable(24) %0) unnamed_addr #0 comdat align 2 {
  %2 = alloca ptr, align 8
  store ptr %0, ptr %2, align 8, !tbaa !113
  %3 = load ptr, ptr %2, align 8
  call void @_ZNSt12_Vector_baseIPN5Ipopt8ObserverESaIS2_EEC2Ev(ptr noundef nonnull align 8 dereferenceable(24) %3) #16
  ret void
}

; Function Attrs: mustprogress uwtable
define linkonce_odr noundef nonnull align 8 dereferenceable(8) ptr @_ZN5Ipopt8SmartPtrIKNS_11MatrixSpaceEE14SetFromRawPtr_EPS2_(ptr noundef nonnull align 8 dereferenceable(8) %0, ptr noundef %1) #2 comdat align 2 {
  %3 = alloca ptr, align 8
  %4 = alloca ptr, align 8
  store ptr %0, ptr %3, align 8, !tbaa !107
  store ptr %1, ptr %4, align 8, !tbaa !37
  %5 = load ptr, ptr %3, align 8
  %6 = load ptr, ptr %4, align 8, !tbaa !37
  %7 = icmp ne ptr %6, null
  br i1 %7, label %8, label %10

8:                                                ; preds = %2
  %9 = load ptr, ptr %4, align 8, !tbaa !37
  call void @_ZNK5Ipopt16ReferencedObject6AddRefEPKNS_10ReferencerE(ptr noundef nonnull align 8 dereferenceable(12) %9, ptr noundef %5)
  br label %10

10:                                               ; preds = %8, %2
  call void @_ZN5Ipopt8SmartPtrIKNS_11MatrixSpaceEE15ReleasePointer_Ev(ptr noundef nonnull align 8 dereferenceable(8) %5)
  %11 = load ptr, ptr %4, align 8, !tbaa !37
  %12 = getelementptr inbounds nuw %"class.Ipopt::SmartPtr", ptr %5, i32 0, i32 0
  store ptr %11, ptr %12, align 8, !tbaa !109
  ret ptr %5
}

; Function Attrs: mustprogress nounwind uwtable
define linkonce_odr void @_ZN5Ipopt16ReferencedObjectD2Ev(ptr noundef nonnull align 8 dereferenceable(12) %0) unnamed_addr #0 comdat align 2 {
  %2 = alloca ptr, align 8
  store ptr %0, ptr %2, align 8, !tbaa !105
  %3 = load ptr, ptr %2, align 8
  store ptr getelementptr inbounds inrange(-16, 16) ({ [4 x ptr] }, ptr @_ZTVN5Ipopt16ReferencedObjectE, i32 0, i32 0, i32 2), ptr %3, align 8, !tbaa !8
  ret void
}

; Function Attrs: mustprogress nounwind uwtable
define linkonce_odr void @_ZN5Ipopt7SubjectC2Ev(ptr noundef nonnull align 8 dereferenceable(32) %0) unnamed_addr #0 comdat align 2 {
  %2 = alloca ptr, align 8
  store ptr %0, ptr %2, align 8, !tbaa !124
  %3 = load ptr, ptr %2, align 8
  store ptr getelementptr inbounds inrange(-16, 16) ({ [4 x ptr] }, ptr @_ZTVN5Ipopt7SubjectE, i32 0, i32 0, i32 2), ptr %3, align 8, !tbaa !8
  %4 = getelementptr inbounds nuw %"class.Ipopt::Subject", ptr %3, i32 0, i32 1
  call void @_ZNSt6vectorIPN5Ipopt8ObserverESaIS2_EEC2Ev(ptr noundef nonnull align 8 dereferenceable(24) %4) #16
  ret void
}

; Function Attrs: mustprogress nounwind uwtable
define linkonce_odr void @_ZN5Ipopt16ReferencedObjectC2Ev(ptr noundef nonnull align 8 dereferenceable(12) %0) unnamed_addr #0 comdat align 2 {
  %2 = alloca ptr, align 8
  store ptr %0, ptr %2, align 8, !tbaa !105
  %3 = load ptr, ptr %2, align 8
  store ptr getelementptr inbounds inrange(-16, 16) ({ [4 x ptr] }, ptr @_ZTVN5Ipopt16ReferencedObjectE, i32 0, i32 0, i32 2), ptr %3, align 8, !tbaa !8
  %4 = getelementptr inbounds nuw %"class.Ipopt::ReferencedObject", ptr %3, i32 0, i32 1
  store i32 0, ptr %4, align 8, !tbaa !112
  ret void
}

; Function Attrs: mustprogress nounwind uwtable
define linkonce_odr noundef i32 @_ZNK5Ipopt11MatrixSpace5NRowsEv(ptr noundef nonnull align 8 dereferenceable(20) %0) #0 comdat align 2 {
  %2 = alloca ptr, align 8
  store ptr %0, ptr %2, align 8, !tbaa !37
  %3 = load ptr, ptr %2, align 8
  %4 = getelementptr inbounds nuw %"class.Ipopt::MatrixSpace", ptr %3, i32 0, i32 1
  %5 = load i32, ptr %4, align 4, !tbaa !102
  ret i32 %5
}

; Function Attrs: mustprogress nounwind uwtable
define linkonce_odr noundef i32 @_ZNK5Ipopt11MatrixSpace5NColsEv(ptr noundef nonnull align 8 dereferenceable(20) %0) #0 comdat align 2 {
  %2 = alloca ptr, align 8
  store ptr %0, ptr %2, align 8, !tbaa !37
  %3 = load ptr, ptr %2, align 8
  %4 = getelementptr inbounds nuw %"class.Ipopt::MatrixSpace", ptr %3, i32 0, i32 2
  %5 = load i32, ptr %4, align 8, !tbaa !104
  ret i32 %5
}

; Function Attrs: mustprogress nounwind uwtable
define linkonce_odr noundef ptr @_ZNK5Ipopt8SmartPtrIKNS_11MatrixSpaceEEptEv(ptr noundef nonnull align 8 dereferenceable(8) %0) #0 comdat align 2 {
  %2 = alloca ptr, align 8
  store ptr %0, ptr %2, align 8, !tbaa !107
  %3 = load ptr, ptr %2, align 8
  %4 = getelementptr inbounds nuw %"class.Ipopt::SmartPtr", ptr %3, i32 0, i32 0
  %5 = load ptr, ptr %4, align 8, !tbaa !109
  ret ptr %5
}

; Function Attrs: mustprogress nounwind uwtable
define linkonce_odr void @_ZN5Ipopt12TaggedObjectD2Ev(ptr noundef nonnull align 8 dereferenceable(56) %0) unnamed_addr #0 comdat align 2 {
  %2 = alloca ptr, align 8
  store ptr %0, ptr %2, align 8, !tbaa !167
  %3 = load ptr, ptr %2, align 8
  %4 = getelementptr inbounds i8, ptr %3, i64 16
  call void @_ZN5Ipopt7SubjectD2Ev(ptr noundef nonnull align 8 dereferenceable(32) %4) #16
  call void @_ZN5Ipopt16ReferencedObjectD2Ev(ptr noundef nonnull align 8 dereferenceable(12) %3) #16
  ret void
}

; Function Attrs: mustprogress uwtable
define linkonce_odr void @_ZN5Ipopt8SmartPtrIKNS_11MatrixSpaceEEC2EPS2_(ptr noundef nonnull align 8 dereferenceable(8) %0, ptr noundef %1) unnamed_addr #2 comdat align 2 {
  %3 = alloca ptr, align 8
  %4 = alloca ptr, align 8
  store ptr %0, ptr %3, align 8, !tbaa !107
  store ptr %1, ptr %4, align 8, !tbaa !37
  %5 = load ptr, ptr %3, align 8
  %6 = getelementptr inbounds nuw %"class.Ipopt::SmartPtr", ptr %5, i32 0, i32 0
  store ptr null, ptr %6, align 8, !tbaa !109
  %7 = load ptr, ptr %4, align 8, !tbaa !37
  %8 = call noundef nonnull align 8 dereferenceable(8) ptr @_ZN5Ipopt8SmartPtrIKNS_11MatrixSpaceEE14SetFromRawPtr_EPS2_(ptr noundef nonnull align 8 dereferenceable(8) %5, ptr noundef %7)
  ret void
}

; Function Attrs: mustprogress uwtable
define linkonce_odr void @_ZN5Ipopt12TaggedObjectC2Ev(ptr noundef nonnull align 8 dereferenceable(56) %0) unnamed_addr #2 comdat align 2 personality ptr @__gxx_personality_v0 {
  %2 = alloca ptr, align 8
  %3 = alloca ptr, align 8
  %4 = alloca i32, align 4
  store ptr %0, ptr %2, align 8, !tbaa !167
  %5 = load ptr, ptr %2, align 8
  call void @_ZN5Ipopt16ReferencedObjectC2Ev(ptr noundef nonnull align 8 dereferenceable(12) %5)
  %6 = getelementptr inbounds i8, ptr %5, i64 16
  invoke void @_ZN5Ipopt7SubjectC2Ev(ptr noundef nonnull align 8 dereferenceable(32) %6)
          to label %7 unwind label %10

7:                                                ; preds = %1
  store ptr getelementptr inbounds inrange(-16, 16) ({ [4 x ptr], [4 x ptr] }, ptr @_ZTVN5Ipopt12TaggedObjectE, i32 0, i32 0, i32 2), ptr %5, align 8, !tbaa !8
  %8 = getelementptr inbounds i8, ptr %5, i64 16
  store ptr getelementptr inbounds inrange(-16, 16) ({ [4 x ptr], [4 x ptr] }, ptr @_ZTVN5Ipopt12TaggedObjectE, i32 0, i32 1, i32 2), ptr %8, align 8, !tbaa !8
  invoke void @_ZN5Ipopt12TaggedObject13ObjectChangedEv(ptr noundef nonnull align 8 dereferenceable(56) %5)
          to label %9 unwind label %14

9:                                                ; preds = %7
  ret void

10:                                               ; preds = %1
  %11 = landingpad { ptr, i32 }
          cleanup
  %12 = extractvalue { ptr, i32 } %11, 0
  store ptr %12, ptr %3, align 8
  %13 = extractvalue { ptr, i32 } %11, 1
  store i32 %13, ptr %4, align 4
  br label %19

14:                                               ; preds = %7
  %15 = landingpad { ptr, i32 }
          cleanup
  %16 = extractvalue { ptr, i32 } %15, 0
  store ptr %16, ptr %3, align 8
  %17 = extractvalue { ptr, i32 } %15, 1
  store i32 %17, ptr %4, align 4
  %18 = getelementptr inbounds i8, ptr %5, i64 16
  call void @_ZN5Ipopt7SubjectD2Ev(ptr noundef nonnull align 8 dereferenceable(32) %18) #16
  br label %19

19:                                               ; preds = %14, %10
  call void @_ZN5Ipopt16ReferencedObjectD2Ev(ptr noundef nonnull align 8 dereferenceable(12) %5) #16
  br label %20

20:                                               ; preds = %19
  %21 = load ptr, ptr %3, align 8
  %22 = load i32, ptr %4, align 4
  %23 = insertvalue { ptr, i32 } poison, ptr %21, 0
  %24 = insertvalue { ptr, i32 } %23, i32 %22, 1
  resume { ptr, i32 } %24
}

; Function Attrs: inlinehint mustprogress uwtable
define linkonce_odr noundef i32 @_ZNK5Ipopt6Matrix5NRowsEv(ptr noundef nonnull align 8 dereferenceable(69) %0) #3 comdat align 2 {
  %2 = alloca ptr, align 8
  store ptr %0, ptr %2, align 8, !tbaa !3
  %3 = load ptr, ptr %2, align 8
  %4 = getelementptr inbounds nuw %"class.Ipopt::Matrix", ptr %3, i32 0, i32 1
  %5 = call noundef ptr @_ZNK5Ipopt8SmartPtrIKNS_11MatrixSpaceEEptEv(ptr noundef nonnull align 8 dereferenceable(8) %4)
  %6 = call noundef i32 @_ZNK5Ipopt11MatrixSpace5NRowsEv(ptr noundef nonnull align 8 dereferenceable(20) %5)
  ret i32 %6
}

; Function Attrs: inlinehint mustprogress uwtable
define linkonce_odr noundef i32 @_ZNK5Ipopt6Matrix5NColsEv(ptr noundef nonnull align 8 dereferenceable(69) %0) #3 comdat align 2 {
  %2 = alloca ptr, align 8
  store ptr %0, ptr %2, align 8, !tbaa !3
  %3 = load ptr, ptr %2, align 8
  %4 = getelementptr inbounds nuw %"class.Ipopt::Matrix", ptr %3, i32 0, i32 1
  %5 = call noundef ptr @_ZNK5Ipopt8SmartPtrIKNS_11MatrixSpaceEEptEv(ptr noundef nonnull align 8 dereferenceable(8) %4)
  %6 = call noundef i32 @_ZNK5Ipopt11MatrixSpace5NColsEv(ptr noundef nonnull align 8 dereferenceable(20) %5)
  ret i32 %6
}

; Function Attrs: mustprogress uwtable
define linkonce_odr void @_ZN5Ipopt6MatrixC2EPKNS_11MatrixSpaceE(ptr noundef nonnull align 8 dereferenceable(69) %0, ptr noundef %1) unnamed_addr #2 comdat align 2 personality ptr @__gxx_personality_v0 {
  %3 = alloca ptr, align 8
  %4 = alloca ptr, align 8
  %5 = alloca ptr, align 8
  %6 = alloca i32, align 4
  store ptr %0, ptr %3, align 8, !tbaa !3
  store ptr %1, ptr %4, align 8, !tbaa !37
  %7 = load ptr, ptr %3, align 8
  call void @_ZN5Ipopt12TaggedObjectC2Ev(ptr noundef nonnull align 8 dereferenceable(56) %7)
  store ptr getelementptr inbounds inrange(-16, 96) ({ [14 x ptr], [4 x ptr] }, ptr @_ZTVN5Ipopt6MatrixE, i32 0, i32 0, i32 2), ptr %7, align 8, !tbaa !8
  %8 = getelementptr inbounds i8, ptr %7, i64 16
  store ptr getelementptr inbounds inrange(-16, 16) ({ [14 x ptr], [4 x ptr] }, ptr @_ZTVN5Ipopt6MatrixE, i32 0, i32 1, i32 2), ptr %8, align 8, !tbaa !8
  %9 = getelementptr inbounds nuw %"class.Ipopt::Matrix", ptr %7, i32 0, i32 1
  %10 = load ptr, ptr %4, align 8, !tbaa !37
  invoke void @_ZN5Ipopt8SmartPtrIKNS_11MatrixSpaceEEC2EPS2_(ptr noundef nonnull align 8 dereferenceable(8) %9, ptr noundef %10)
          to label %11 unwind label %13

11:                                               ; preds = %2
  %12 = getelementptr inbounds nuw %"class.Ipopt::Matrix", ptr %7, i32 0, i32 2
  store i32 0, ptr %12, align 8, !tbaa !38
  ret void

13:                                               ; preds = %2
  %14 = landingpad { ptr, i32 }
          cleanup
  %15 = extractvalue { ptr, i32 } %14, 0
  store ptr %15, ptr %5, align 8
  %16 = extractvalue { ptr, i32 } %14, 1
  store i32 %16, ptr %6, align 4
  call void @_ZN5Ipopt12TaggedObjectD2Ev(ptr noundef nonnull align 8 dereferenceable(56) %7) #16
  br label %17

17:                                               ; preds = %13
  %18 = load ptr, ptr %5, align 8
  %19 = load i32, ptr %6, align 4
  %20 = insertvalue { ptr, i32 } poison, ptr %18, 0
  %21 = insertvalue { ptr, i32 } %20, i32 %19, 1
  resume { ptr, i32 } %21
}

; Function Attrs: mustprogress uwtable
define void @_ZN5Ipopt14DenseGenMatrixC2EPKNS_19DenseGenMatrixSpaceE(ptr noundef nonnull align 8 dereferenceable(104) %0, ptr noundef %1) unnamed_addr #2 align 2 personality ptr @__gxx_personality_v0 {
  %3 = alloca ptr, align 8
  %4 = alloca ptr, align 8
  %5 = alloca ptr, align 8
  %6 = alloca i32, align 4
  store ptr %0, ptr %3, align 8, !tbaa !10
  store ptr %1, ptr %4, align 8, !tbaa !12
  %7 = load ptr, ptr %3, align 8
  %8 = load ptr, ptr %4, align 8, !tbaa !12
  call void @_ZN5Ipopt6MatrixC2EPKNS_11MatrixSpaceE(ptr noundef nonnull align 8 dereferenceable(69) %7, ptr noundef %8)
  store ptr getelementptr inbounds inrange(-16, 96) ({ [14 x ptr], [4 x ptr] }, ptr @_ZTVN5Ipopt14DenseGenMatrixE, i32 0, i32 0, i32 2), ptr %7, align 8, !tbaa !8
  %9 = getelementptr inbounds i8, ptr %7, i64 16
  store ptr getelementptr inbounds inrange(-16, 16) ({ [14 x ptr], [4 x ptr] }, ptr @_ZTVN5Ipopt14DenseGenMatrixE, i32 0, i32 1, i32 2), ptr %9, align 8, !tbaa !8
  %10 = getelementptr inbounds nuw %"class.Ipopt::DenseGenMatrix", ptr %7, i32 0, i32 1
  %11 = load ptr, ptr %4, align 8, !tbaa !12
  store ptr %11, ptr %10, align 8, !tbaa !14
  %12 = getelementptr inbounds nuw %"class.Ipopt::DenseGenMatrix", ptr %7, i32 0, i32 2
  %13 = invoke noundef i32 @_ZNK5Ipopt6Matrix5NColsEv(ptr noundef nonnull align 8 dereferenceable(69) %7)
          to label %14 unwind label %28

14:                                               ; preds = %2
  %15 = invoke noundef i32 @_ZNK5Ipopt6Matrix5NRowsEv(ptr noundef nonnull align 8 dereferenceable(69) %7)
          to label %16 unwind label %28

16:                                               ; preds = %14
  %17 = mul nsw i32 %13, %15
  %18 = sext i32 %17 to i64
  %19 = call { i64, i1 } @llvm.umul.with.overflow.i64(i64 %18, i64 8)
  %20 = extractvalue { i64, i1 } %19, 1
  %21 = extractvalue { i64, i1 } %19, 0
  %22 = select i1 %20, i64 -1, i64 %21
  %23 = invoke noalias noundef nonnull ptr @_Znam(i64 noundef %22) #17
          to label %24 unwind label %28

24:                                               ; preds = %16
  store ptr %23, ptr %12, align 8, !tbaa !33
  %25 = getelementptr inbounds nuw %"class.Ipopt::DenseGenMatrix", ptr %7, i32 0, i32 3
  store i8 0, ptr %25, align 8, !tbaa !34
  %26 = getelementptr inbounds nuw %"class.Ipopt::DenseGenMatrix", ptr %7, i32 0, i32 4
  store i32 0, ptr %26, align 4, !tbaa !35
  %27 = getelementptr inbounds nuw %"class.Ipopt::DenseGenMatrix", ptr %7, i32 0, i32 5
  store ptr null, ptr %27, align 8, !tbaa !36
  ret void

28:                                               ; preds = %16, %14, %2
  %29 = landingpad { ptr, i32 }
          cleanup
  %30 = extractvalue { ptr, i32 } %29, 0
  store ptr %30, ptr %5, align 8
  %31 = extractvalue { ptr, i32 } %29, 1
  store i32 %31, ptr %6, align 4
  call void @_ZN5Ipopt6MatrixD2Ev(ptr noundef nonnull align 8 dereferenceable(69) %7) #16
  br label %32

32:                                               ; preds = %28
  %33 = load ptr, ptr %5, align 8
  %34 = load i32, ptr %6, align 4
  %35 = insertvalue { ptr, i32 } poison, ptr %33, 0
  %36 = insertvalue { ptr, i32 } %35, i32 %34, 1
  resume { ptr, i32 } %36
}