; Function Attrs: mustprogress uwtable
define void @_ZN5Ipopt14DenseGenMatrixC2EPKNS_19DenseGenMatrixSpaceE(ptr noundef nonnull align 8 dereferenceable(104) initializes((0, 12), (16, 48)) %0, ptr noundef %1) unnamed_addr #2 align 2 personality ptr @__gxx_personality_v0 {
  %3 = getelementptr inbounds nuw i8, ptr %0, i64 8
  store i32 0, ptr %3, align 8, !tbaa !11
  %4 = getelementptr inbounds nuw i8, ptr %0, i64 16
  %5 = getelementptr inbounds nuw i8, ptr %0, i64 24
  tail call void @llvm.memset.p0.i64(ptr noundef nonnull align 8 dereferenceable(24) %5, i8 0, i64 24, i1 false)
  store ptr getelementptr inbounds nuw inrange(-16, 16) (i8, ptr @_ZTVN5Ipopt12TaggedObjectE, i64 16), ptr %0, align 8, !tbaa !3
  store ptr getelementptr inbounds nuw inrange(-16, 16) (i8, ptr @_ZTVN5Ipopt12TaggedObjectE, i64 48), ptr %4, align 8, !tbaa !3
  invoke void @_ZN5Ipopt12TaggedObject13ObjectChangedEv(ptr noundef nonnull align 8 dereferenceable(69) %0)
          to label %_ZN5Ipopt12TaggedObjectC2Ev.exit.i unwind label %6

common.resume:                                    ; preds = %31, %6
  %common.resume.op = phi { ptr, i32 } [ %7, %6 ], [ %32, %31 ]
  resume { ptr, i32 } %common.resume.op

6:                                                ; preds = %2
  %7 = landingpad { ptr, i32 }
          cleanup
  tail call void @_ZN5Ipopt7SubjectD2Ev(ptr noundef nonnull align 8 dereferenceable(32) %4) #20
  store ptr getelementptr inbounds nuw inrange(-16, 16) (i8, ptr @_ZTVN5Ipopt16ReferencedObjectE, i64 16), ptr %0, align 8, !tbaa !3
  br label %common.resume

_ZN5Ipopt12TaggedObjectC2Ev.exit.i:               ; preds = %2
  store ptr getelementptr inbounds nuw inrange(-16, 96) (i8, ptr @_ZTVN5Ipopt6MatrixE, i64 16), ptr %0, align 8, !tbaa !3
  store ptr getelementptr inbounds nuw inrange(-16, 16) (i8, ptr @_ZTVN5Ipopt6MatrixE, i64 128), ptr %4, align 8, !tbaa !3
  %.not.i.i.i = icmp eq ptr %1, null
  br i1 %.not.i.i.i, label %12, label %8

8:                                                ; preds = %_ZN5Ipopt12TaggedObjectC2Ev.exit.i
  %9 = getelementptr inbounds nuw i8, ptr %1, i64 8
  %10 = load i32, ptr %9, align 8, !tbaa !11
  %11 = add nsw i32 %10, 1
  store i32 %11, ptr %9, align 8, !tbaa !11
  br label %12

12:                                               ; preds = %_ZN5Ipopt12TaggedObjectC2Ev.exit.i, %8
  %13 = getelementptr inbounds nuw i8, ptr %0, i64 56
  store ptr %1, ptr %13, align 8, !tbaa !6
  %14 = getelementptr inbounds nuw i8, ptr %0, i64 64
  store i32 0, ptr %14, align 8, !tbaa !14
  store ptr getelementptr inbounds nuw inrange(-16, 96) (i8, ptr @_ZTVN5Ipopt14DenseGenMatrixE, i64 16), ptr %0, align 8, !tbaa !3
  store ptr getelementptr inbounds nuw inrange(-16, 16) (i8, ptr @_ZTVN5Ipopt14DenseGenMatrixE, i64 128), ptr %4, align 8, !tbaa !3
  %15 = getelementptr inbounds nuw i8, ptr %0, i64 72
  store ptr %1, ptr %15, align 8, !tbaa !25
  %16 = getelementptr inbounds nuw i8, ptr %1, i64 16
  %17 = load i32, ptr %16, align 8, !tbaa !31
  %18 = getelementptr inbounds nuw i8, ptr %1, i64 12
  %19 = load i32, ptr %18, align 4, !tbaa !33
  %20 = mul nsw i32 %19, %17
  %21 = sext i32 %20 to i64
  %22 = icmp slt i32 %20, 0
  %23 = shl nsw i64 %21, 3
  %24 = select i1 %22, i64 -1, i64 %23
  %25 = invoke noalias noundef nonnull ptr @_Znam(i64 noundef %24) #21
          to label %26 unwind label %31

26:                                               ; preds = %12
  %27 = getelementptr inbounds nuw i8, ptr %0, i64 80
  store ptr %25, ptr %27, align 8, !tbaa !34
  %28 = getelementptr inbounds nuw i8, ptr %0, i64 88
  store i8 0, ptr %28, align 8, !tbaa !35
  %29 = getelementptr inbounds nuw i8, ptr %0, i64 92
  store i32 0, ptr %29, align 4, !tbaa !36
  %30 = getelementptr inbounds nuw i8, ptr %0, i64 96
  store ptr null, ptr %30, align 8, !tbaa !37
  ret void

31:                                               ; preds = %12
  %32 = landingpad { ptr, i32 }
          cleanup
  tail call void @_ZN5Ipopt6MatrixD2Ev(ptr noundef nonnull align 8 dereferenceable(69) %0) #20
  br label %common.resume
}